Certificate:
    Data:
        Version: 1 (0x0)
        Serial Number:
            3f:7e:46:6c:f0:35:72:87:bd:f0:45:52:d0:99:9c:23:a7:29:15:51
        Signature Algorithm: ecdsa-with-SHA256
        Issuer: C = DE, ST = BW, L = Heilbronx, O = CAMAO IDC GmH, CN = dev.camao.domains.camao
        Validity
            Not Before: Sep  9 05:38:58 2021 GMT
            Not After : Apr 19 05:38:58 2027 GMT
        Subject: C = DE, ST = BW, L = Heilbronx, O = CAMAO IDC GmH, CN = dev.camao.domains.camao
        Subject Public Key Info:
            Public Key Algorithm: id-ecPublicKey
                Public-Key: (256 bit)
                pub:
                    04:8e:7a:b1:5a:99:43:51:3f:ed:0d:7f:df:55:57:
                    bc:ac:6a:35:73:74:8d:4f:08:d0:9c:4c:50:a3:db:
                    1c:a1:95:3f:b6:22:77:84:70:2e:fa:ad:be:c9:2c:
                    ac:a5:89:f4:92:2d:1e:63:59:d8:4b:be:db:bf:92:
                    fb:1a:e4:aa:36
                ASN1 OID: prime256v1
                NIST CURVE: P-256
    Signature Algorithm: ecdsa-with-SHA256
         30:45:02:20:21:8d:69:c6:e5:02:44:31:12:fc:0e:73:23:74:
         3c:cf:f3:e9:78:ca:4f:44:bd:30:65:b4:52:ed:7e:bc:1c:cd:
         02:21:00:ae:c4:f9:cf:5f:54:ee:5a:43:48:eb:32:97:e5:fa:
         4a:36:da:6c:62:c7:b6:70:be:1f:7d:4a:86:25:04:ea:18
-----BEGIN CERTIFICATE-----
MIIByzCCAXECFD9+RmzwNXKHvfBFUtCZnCOnKRVRMAoGCCqGSM49BAMCMGgxCzAJ
BgNVBAYTAkRFMQswCQYDVQQIDAJCVzESMBAGA1UEBwwJSGVpbGJyb254MRYwFAYD
VQQKDA1DQU1BTyBJREMgR21IMSAwHgYDVQQDDBdkZXYuY2FtYW8uZG9tYWlucy5j
YW1hbzAeFw0yMTA5MDkwNTM4NThaFw0yNzA0MTkwNTM4NThaMGgxCzAJBgNVBAYT
AkRFMQswCQYDVQQIDAJCVzESMBAGA1UEBwwJSGVpbGJyb254MRYwFAYDVQQKDA1D
QU1BTyBJREMgR21IMSAwHgYDVQQDDBdkZXYuY2FtYW8uZG9tYWlucy5jYW1hbzBZ
MBMGByqGSM49AgEGCCqGSM49AwEHA0IABI56sVqZQ1E/7Q1/31VXvKxqNXN0jU8I
0JxMUKPbHKGVP7Yid4RwLvqtvsksrKWJ9JItHmNZ2Eu+27+S+xrkqjYwCgYIKoZI
zj0EAwIDSAAwRQIgIY1pxuUCRDES/A5zI3Q8z/PpeMpPRL0wZbRS7X68HM0CIQCu
xPnPX1TuWkNI6zKX5fpKNtpsYse2cL4ffUqGJQTqGA==
-----END CERTIFICATE-----
